; ModuleID = '60/659.c'
source_filename = "60/659.c"
target datalayout = "e-m:e-p270:32:32-p271:32:32-p272:64:64-i64:64-f80:128-n8:16:32:64-S128"
target triple = "x86_64-pc-linux-gnu"

@.str = private unnamed_addr constant [3 x i8] c"%d\00", align 1
@.str.1 = private unnamed_addr constant [7 x i8] c"%d %d\0A\00", align 1
@.str.2 = private unnamed_addr constant [6 x i8] c"empty\00", align 1

; Function Attrs: noinline nounwind uwtable
define dso_local i32 @f(i32 %0) #0 {
  %2 = alloca i32, align 4
  %3 = alloca i32, align 4
  %4 = alloca i32, align 4
  %5 = alloca i32, align 4
  %6 = alloca i32, align 4
  store i32 %0, i32* %3, align 4
  store i32 0, i32* %6, align 4
  store i32 1, i32* %4, align 4
  br label %7

7:                                                ; preds = %21, %1
  %8 = load i32, i32* %4, align 4
  %9 = load i32, i32* %3, align 4
  %10 = icmp sle i32 %8, %9
  br i1 %10, label %11, label %24

11:                                               ; preds = %7
  %12 = load i32, i32* %3, align 4
  %13 = load i32, i32* %4, align 4
  %14 = srem i32 %12, %13
  store i32 %14, i32* %5, align 4
  %15 = load i32, i32* %5, align 4
  %16 = icmp eq i32 %15, 0
  br i1 %16, label %17, label %20

17:                                               ; preds = %11
  %18 = load i32, i32* %6, align 4
  %19 = add nsw i32 %18, 1
  store i32 %19, i32* %6, align 4
  br label %20

20:                                               ; preds = %17, %11
  br label %21

21:                                               ; preds = %20
  %22 = load i32, i32* %4, align 4
  %23 = add nsw i32 %22, 1
  store i32 %23, i32* %4, align 4
  br label %7

24:                                               ; preds = %7
  %25 = load i32, i32* %6, align 4
  %26 = icmp eq i32 %25, 2
  br i1 %26, label %27, label %28

27:                                               ; preds = %24
  store i32 1, i32* %2, align 4
  br label %29

28:                                               ; preds = %24
  store i32 0, i32* %2, align 4
  br label %29

29:                                               ; preds = %28, %27
  %30 = load i32, i32* %2, align 4
  ret i32 %30
}

; Function Attrs: noinline nounwind uwtable
define dso_local i32 @main() #0 {
  %1 = alloca i32, align 4
  %2 = alloca i32, align 4
  %3 = alloca i32, align 4
  %4 = alloca i32, align 4
  %5 = alloca i32, align 4
  %6 = alloca i32, align 4
  store i32 0, i32* %1, align 4
  %7 = call i32 (i8*, ...) @__isoc99_scanf(i8* getelementptr inbounds ([3 x i8], [3 x i8]* @.str, i64 0, i64 0), i32* %2)
  %8 = load i32, i32* %2, align 4
  %9 = icmp sge i32 %8, 5
  br i1 %9, label %10, label %38

10:                                               ; preds = %0
  %11 = load i32, i32* %2, align 4
  %12 = sub nsw i32 %11, 2
  store i32 %12, i32* %2, align 4
  store i32 1, i32* %3, align 4
  br label %13

13:                                               ; preds = %34, %10
  %14 = load i32, i32* %3, align 4
  %15 = load i32, i32* %2, align 4
  %16 = icmp sle i32 %14, %15
  br i1 %16, label %17, label %37

17:                                               ; preds = %13
  %18 = load i32, i32* %3, align 4
  %19 = add nsw i32 %18, 2
  store i32 %19, i32* %4, align 4
  %20 = load i32, i32* %3, align 4
  %21 = call i32 @f(i32 %20)
  store i32 %21, i32* %5, align 4
  %22 = load i32, i32* %4, align 4
  %23 = call i32 @f(i32 %22)
  store i32 %23, i32* %6, align 4
  %24 = load i32, i32* %5, align 4
  %25 = icmp eq i32 %24, 1
  br i1 %25, label %26, label %33

26:                                               ; preds = %17
  %27 = load i32, i32* %6, align 4
  %28 = icmp eq i32 %27, 1
  br i1 %28, label %29, label %33

29:                                               ; preds = %26
  %30 = load i32, i32* %3, align 4
  %31 = load i32, i32* %4, align 4
  %32 = call i32 (i8*, ...) @printf(i8* getelementptr inbounds ([7 x i8], [7 x i8]* @.str.1, i64 0, i64 0), i32 %30, i32 %31)
  br label %33

33:                                               ; preds = %29, %26, %17
  br label %34

34:                                               ; preds = %33
  %35 = load i32, i32* %3, align 4
  %36 = add nsw i32 %35, 1
  store i32 %36, i32* %3, align 4
  br label %13

37:                                               ; preds = %13
  br label %40

38:                                               ; preds = %0
  %39 = call i32 (i8*, ...) @printf(i8* getelementptr inbounds ([6 x i8], [6 x i8]* @.str.2, i64 0, i64 0))
  br label %40

40:                                               ; preds = %38, %37
  ret i32 0
}

declare dso_local i32 @__isoc99_scanf(i8*, ...) #1

declare dso_local i32 @printf(i8*, ...) #1


!llvm.module.flags = !{!0}
!llvm.ident = !{!1}

!0 = !{i32 1, !"wchar_size", i32 4}
!1 = !{!"clang version 10.0.0-4ubuntu1 "}
